; Function Attrs: mustprogress uwtable
define { ptr, i64 } @_ZNK7rocksdb15ForwardIterator3keyEv(ptr noundef nonnull readonly align 16 captures(none) dereferenceable(2944) %0) unnamed_addr #5 align 2 {
  %2 = getelementptr inbounds nuw i8, ptr %0, i64 368
  %3 = load ptr, ptr %2, align 16, !tbaa !375
  %4 = load ptr, ptr %3, align 8, !tbaa !19
  %5 = getelementptr inbounds nuw i8, ptr %4, i64 88
  %6 = load ptr, ptr %5, align 8
  %7 = tail call { ptr, i64 } %6(ptr noundef nonnull align 8 dereferenceable(40) %3)
  ret { ptr, i64 } %7
}